; ModuleID = 'source-C-CXX/35/1565.cpp'
source_filename = "source-C-CXX/35/1565.cpp"
target datalayout = "e-m:e-p270:32:32-p271:32:32-p272:64:64-i64:64-f80:128-n8:16:32:64-S128"
target triple = "x86_64-pc-linux-gnu"

%"class.std::ios_base::Init" = type { i8 }
%"class.std::basic_istream" = type { i32 (...)**, i64, %"class.std::basic_ios" }
%"class.std::basic_ios" = type { %"class.std::ios_base", %"class.std::basic_ostream"*, i8, i8, %"class.std::basic_streambuf"*, %"class.std::ctype"*, %"class.std::num_put"*, %"class.std::num_get"* }
%"class.std::ios_base" = type { i32 (...)**, i64, i64, i32, i32, i32, %"struct.std::ios_base::_Callback_list"*, %"struct.std::ios_base::_Words", [8 x %"struct.std::ios_base::_Words"], i32, %"struct.std::ios_base::_Words"*, %"class.std::locale" }
%"struct.std::ios_base::_Callback_list" = type { %"struct.std::ios_base::_Callback_list"*, void (i32, %"class.std::ios_base"*, i32)*, i32, i32 }
%"struct.std::ios_base::_Words" = type { i8*, i64 }
%"class.std::locale" = type { %"class.std::locale::_Impl"* }
%"class.std::locale::_Impl" = type { i32, %"class.std::locale::facet"**, i64, %"class.std::locale::facet"**, i8** }
%"class.std::locale::facet" = type <{ i32 (...)**, i32, [4 x i8] }>
%"class.std::basic_ostream" = type { i32 (...)**, %"class.std::basic_ios" }
%"class.std::basic_streambuf" = type { i32 (...)**, i8*, i8*, i8*, i8*, i8*, i8*, %"class.std::locale" }
%"class.std::ctype" = type <{ %"class.std::locale::facet.base", [4 x i8], %struct.__locale_struct*, i8, [7 x i8], i32*, i32*, i16*, i8, [256 x i8], [256 x i8], i8, [6 x i8] }>
%"class.std::locale::facet.base" = type <{ i32 (...)**, i32 }>
%struct.__locale_struct = type { [13 x %struct.__locale_data*], i16*, i32*, i32*, [13 x i8*] }
%struct.__locale_data = type opaque
%"class.std::num_put" = type { %"class.std::locale::facet.base", [4 x i8] }
%"class.std::num_get" = type { %"class.std::locale::facet.base", [4 x i8] }

@_ZStL8__ioinit = internal global %"class.std::ios_base::Init" zeroinitializer, align 1
@__dso_handle = external hidden global i8
@_ZSt3cin = external global %"class.std::basic_istream", align 8
@_ZSt4cout = external global %"class.std::basic_ostream", align 8
@.str = private unnamed_addr constant [3 x i8] c"NO\00", align 1
@.str.1 = private unnamed_addr constant [4 x i8] c"YES\00", align 1
@llvm.global_ctors = appending global [1 x { i32, void ()*, i8* }] [{ i32, void ()*, i8* } { i32 65535, void ()* @_GLOBAL__sub_I_1565.cpp, i8* null }]

declare void @_ZNSt8ios_base4InitC1Ev(%"class.std::ios_base::Init"* nonnull align 1 dereferenceable(1)) unnamed_addr #0

; Function Attrs: nounwind
declare void @_ZNSt8ios_base4InitD1Ev(%"class.std::ios_base::Init"* nonnull align 1 dereferenceable(1)) unnamed_addr #1

; Function Attrs: nofree nounwind
declare i32 @__cxa_atexit(void (i8*)*, i8*, i8*) local_unnamed_addr #2

; Function Attrs: mustprogress norecurse sspstrong uwtable
define dso_local i32 @main() local_unnamed_addr #3 {
  %1 = alloca [128 x i32], align 16
  %2 = bitcast [128 x i32]* %1 to i8*
  %3 = alloca [128 x i32], align 16
  %4 = bitcast [128 x i32]* %3 to i8*
  %5 = alloca [1000 x i8], align 16
  %6 = alloca [1000 x i8], align 16
  call void @llvm.lifetime.start.p0i8(i64 512, i8* nonnull %2) #7
  call void @llvm.lifetime.start.p0i8(i64 512, i8* nonnull %4) #7
  %7 = getelementptr inbounds [1000 x i8], [1000 x i8]* %5, i64 0, i64 0
  call void @llvm.lifetime.start.p0i8(i64 1000, i8* nonnull %7) #7
  %8 = getelementptr inbounds [1000 x i8], [1000 x i8]* %6, i64 0, i64 0
  call void @llvm.lifetime.start.p0i8(i64 1000, i8* nonnull %8) #7
  call void @_ZSt17__istream_extractRSiPcl(%"class.std::basic_istream"* nonnull align 8 dereferenceable(16) @_ZSt3cin, i8* nonnull %7, i64 1000)
  call void @_ZSt17__istream_extractRSiPcl(%"class.std::basic_istream"* nonnull align 8 dereferenceable(16) @_ZSt3cin, i8* nonnull %8, i64 1000)
  call void @llvm.memset.p0i8.i64(i8* noundef nonnull align 16 dereferenceable(512) %4, i8 0, i64 512, i1 false)
  call void @llvm.memset.p0i8.i64(i8* noundef nonnull align 16 dereferenceable(512) %2, i8 0, i64 512, i1 false)
  %9 = load i8, i8* %7, align 16, !tbaa !5
  %10 = icmp eq i8 %9, 0
  br i1 %10, label %32, label %11

11:                                               ; preds = %0, %17
  %12 = phi i64 [ %26, %17 ], [ 0, %0 ]
  %13 = phi i8 [ %28, %17 ], [ %9, %0 ]
  %14 = getelementptr inbounds [1000 x i8], [1000 x i8]* %6, i64 0, i64 %12
  %15 = load i8, i8* %14, align 1, !tbaa !5
  %16 = icmp eq i8 %15, 0
  br i1 %16, label %37, label %17

17:                                               ; preds = %11
  %18 = sext i8 %13 to i64
  %19 = getelementptr inbounds [128 x i32], [128 x i32]* %1, i64 0, i64 %18
  %20 = load i32, i32* %19, align 4, !tbaa !8
  %21 = add nsw i32 %20, 1
  store i32 %21, i32* %19, align 4, !tbaa !8
  %22 = sext i8 %15 to i64
  %23 = getelementptr inbounds [128 x i32], [128 x i32]* %3, i64 0, i64 %22
  %24 = load i32, i32* %23, align 4, !tbaa !8
  %25 = add nsw i32 %24, 1
  store i32 %25, i32* %23, align 4, !tbaa !8
  %26 = add nuw i64 %12, 1
  %27 = getelementptr inbounds [1000 x i8], [1000 x i8]* %5, i64 0, i64 %26
  %28 = load i8, i8* %27, align 1, !tbaa !5
  %29 = icmp eq i8 %28, 0
  br i1 %29, label %30, label %11, !llvm.loop !10

30:                                               ; preds = %17
  %31 = and i64 %26, 4294967295
  br label %32

32:                                               ; preds = %30, %0
  %33 = phi i64 [ 0, %0 ], [ %31, %30 ]
  %34 = getelementptr inbounds [1000 x i8], [1000 x i8]* %6, i64 0, i64 %33
  %35 = load i8, i8* %34, align 1, !tbaa !5
  %36 = icmp eq i8 %35, 0
  br i1 %36, label %39, label %37

37:                                               ; preds = %11, %32
  %38 = call nonnull align 8 dereferenceable(8) %"class.std::basic_ostream"* @_ZSt16__ostream_insertIcSt11char_traitsIcEERSt13basic_ostreamIT_T0_ES6_PKS3_l(%"class.std::basic_ostream"* nonnull align 8 dereferenceable(8) @_ZSt4cout, i8* nonnull getelementptr inbounds ([3 x i8], [3 x i8]* @.str, i64 0, i64 0), i64 2)
  br label %57

39:                                               ; preds = %32, %72
  %40 = phi i64 [ %73, %72 ], [ 0, %32 ]
  %41 = getelementptr inbounds [128 x i32], [128 x i32]* %1, i64 0, i64 %40
  %42 = load i32, i32* %41, align 16, !tbaa !8
  %43 = getelementptr inbounds [128 x i32], [128 x i32]* %3, i64 0, i64 %40
  %44 = load i32, i32* %43, align 16, !tbaa !8
  %45 = icmp eq i32 %42, %44
  br i1 %45, label %48, label %46

46:                                               ; preds = %65, %58, %48, %39
  %47 = call nonnull align 8 dereferenceable(8) %"class.std::basic_ostream"* @_ZSt16__ostream_insertIcSt11char_traitsIcEERSt13basic_ostreamIT_T0_ES6_PKS3_l(%"class.std::basic_ostream"* nonnull align 8 dereferenceable(8) @_ZSt4cout, i8* nonnull getelementptr inbounds ([3 x i8], [3 x i8]* @.str, i64 0, i64 0), i64 2)
  br label %57

48:                                               ; preds = %39
  %49 = or i64 %40, 1
  %50 = getelementptr inbounds [128 x i32], [128 x i32]* %1, i64 0, i64 %49
  %51 = load i32, i32* %50, align 4, !tbaa !8
  %52 = getelementptr inbounds [128 x i32], [128 x i32]* %3, i64 0, i64 %49
  %53 = load i32, i32* %52, align 4, !tbaa !8
  %54 = icmp eq i32 %51, %53
  br i1 %54, label %58, label %46

55:                                               ; preds = %72
  %56 = call nonnull align 8 dereferenceable(8) %"class.std::basic_ostream"* @_ZSt16__ostream_insertIcSt11char_traitsIcEERSt13basic_ostreamIT_T0_ES6_PKS3_l(%"class.std::basic_ostream"* nonnull align 8 dereferenceable(8) @_ZSt4cout, i8* nonnull getelementptr inbounds ([4 x i8], [4 x i8]* @.str.1, i64 0, i64 0), i64 3)
  br label %57

57:                                               ; preds = %46, %55, %37
  call void @llvm.lifetime.end.p0i8(i64 1000, i8* nonnull %8) #7
  call void @llvm.lifetime.end.p0i8(i64 1000, i8* nonnull %7) #7
  call void @llvm.lifetime.end.p0i8(i64 512, i8* nonnull %4) #7
  call void @llvm.lifetime.end.p0i8(i64 512, i8* nonnull %2) #7
  ret i32 0

58:                                               ; preds = %48
  %59 = or i64 %40, 2
  %60 = getelementptr inbounds [128 x i32], [128 x i32]* %1, i64 0, i64 %59
  %61 = load i32, i32* %60, align 8, !tbaa !8
  %62 = getelementptr inbounds [128 x i32], [128 x i32]* %3, i64 0, i64 %59
  %63 = load i32, i32* %62, align 8, !tbaa !8
  %64 = icmp eq i32 %61, %63
  br i1 %64, label %65, label %46

65:                                               ; preds = %58
  %66 = or i64 %40, 3
  %67 = getelementptr inbounds [128 x i32], [128 x i32]* %1, i64 0, i64 %66
  %68 = load i32, i32* %67, align 4, !tbaa !8
  %69 = getelementptr inbounds [128 x i32], [128 x i32]* %3, i64 0, i64 %66
  %70 = load i32, i32* %69, align 4, !tbaa !8
  %71 = icmp eq i32 %68, %70
  br i1 %71, label %72, label %46

72:                                               ; preds = %65
  %73 = add nuw nsw i64 %40, 4
  %74 = icmp eq i64 %73, 128
  br i1 %74, label %55, label %39, !llvm.loop !12
}

; Function Attrs: argmemonly mustprogress nofree nosync nounwind willreturn
declare void @llvm.lifetime.start.p0i8(i64 immarg, i8* nocapture) #4

; Function Attrs: argmemonly mustprogress nofree nosync nounwind willreturn
declare void @llvm.lifetime.end.p0i8(i64 immarg, i8* nocapture) #4

declare void @_ZSt17__istream_extractRSiPcl(%"class.std::basic_istream"* nonnull align 8 dereferenceable(16), i8*, i64) local_unnamed_addr #0

declare nonnull align 8 dereferenceable(8) %"class.std::basic_ostream"* @_ZSt16__ostream_insertIcSt11char_traitsIcEERSt13basic_ostreamIT_T0_ES6_PKS3_l(%"class.std::basic_ostream"* nonnull align 8 dereferenceable(8), i8*, i64) local_unnamed_addr #0

; Function Attrs: sspstrong uwtable
define internal void @_GLOBAL__sub_I_1565.cpp() #5 section ".text.startup" {
  tail call void @_ZNSt8ios_base4InitC1Ev(%"class.std::ios_base::Init"* nonnull align 1 dereferenceable(1) @_ZStL8__ioinit)
  %1 = tail call i32 @__cxa_atexit(void (i8*)* bitcast (void (%"class.std::ios_base::Init"*)* @_ZNSt8ios_base4InitD1Ev to void (i8*)*), i8* getelementptr inbounds (%"class.std::ios_base::Init", %"class.std::ios_base::Init"* @_ZStL8__ioinit, i64 0, i32 0), i8* nonnull @__dso_handle) #7
  ret void
}

; Function Attrs: argmemonly nofree nounwind willreturn writeonly
declare void @llvm.memset.p0i8.i64(i8* nocapture writeonly, i8, i64, i1 immarg) #6


!llvm.module.flags = !{!0, !1, !2, !3}
!llvm.ident = !{!4}

!0 = !{i32 1, !"wchar_size", i32 4}
!1 = !{i32 7, !"PIC Level", i32 2}
!2 = !{i32 7, !"PIE Level", i32 2}
!3 = !{i32 7, !"uwtable", i32 1}
!4 = !{!"clang version 13.0.0"}
!5 = !{!6, !6, i64 0}
!6 = !{!"omnipotent char", !7, i64 0}
!7 = !{!"Simple C++ TBAA"}
!8 = !{!9, !9, i64 0}
!9 = !{!"int", !6, i64 0}
!10 = distinct !{!10, !11}
!11 = !{!"llvm.loop.mustprogress"}
!12 = distinct !{!12, !11}
